target datalayout = "e-m:e-p270:32:32-p271:32:32-p272:64:64-i64:64-i128:128-f80:128-n8:16:32:64-S128"
target triple = "x86_64-pc-linux-gnu"

%struct.strvec = type { ptr, i64, i64 }
%struct.strbuf = type { i64, i64, ptr }
%struct.http_pack_request = type { ptr, ptr, i8, ptr, %struct.strbuf, ptr, ptr }
%struct.child_process = type { %struct.strvec, %struct.strvec, i32, i32, i64, ptr, ptr, i32, i32, i32, ptr, i16, ptr }

@default_index_pack_args = internal global [3 x ptr] [ptr @.str.207, ptr @.str.208, ptr null], align 16

; Function Attrs: nounwind uwtable
define dso_local i32 @finish_http_pack_request(ptr noundef %0) #0 {
  %2 = alloca ptr, align 8
  %3 = alloca %struct.child_process, align 8
  %4 = alloca i32, align 4
  %5 = alloca i32, align 4
  store ptr %0, ptr %2, align 8, !tbaa !187
  call void @llvm.lifetime.start.p0(i64 120, ptr %3) #11
  call void @llvm.memcpy.p0.p0.i64(ptr align 8 %3, ptr align 8 @__const.finish_http_pack_request.ip, i64 120, i1 false)
  call void @llvm.lifetime.start.p0(i64 4, ptr %4) #11
  call void @llvm.lifetime.start.p0(i64 4, ptr %5) #11
  store i32 0, ptr %5, align 4, !tbaa !19
  %6 = load ptr, ptr %2, align 8, !tbaa !187
  %7 = getelementptr inbounds nuw %struct.http_pack_request, ptr %6, i32 0, i32 3
  %8 = load ptr, ptr %7, align 8, !tbaa !189
  %9 = call i32 @fclose(ptr noundef %8)
  %10 = load ptr, ptr %2, align 8, !tbaa !187
  %11 = getelementptr inbounds nuw %struct.http_pack_request, ptr %10, i32 0, i32 3
  store ptr null, ptr %11, align 8, !tbaa !189
  %12 = load ptr, ptr %2, align 8, !tbaa !187
  %13 = getelementptr inbounds nuw %struct.http_pack_request, ptr %12, i32 0, i32 4
  %14 = getelementptr inbounds nuw %struct.strbuf, ptr %13, i32 0, i32 2
  %15 = load ptr, ptr %14, align 8, !tbaa !194
  %16 = call i32 (ptr, i32, ...) @xopen(ptr noundef %15, i32 noundef 0)
  store i32 %16, ptr %4, align 4, !tbaa !19
  %17 = getelementptr inbounds nuw %struct.child_process, ptr %3, i32 0, i32 11
  %18 = load i16, ptr %17, align 8
  %19 = and i16 %18, -9
  %20 = or i16 %19, 8
  store i16 %20, ptr %17, align 8
  %21 = load i32, ptr %4, align 4, !tbaa !19
  %22 = getelementptr inbounds nuw %struct.child_process, ptr %3, i32 0, i32 7
  store i32 %21, ptr %22, align 8, !tbaa !195
  %23 = getelementptr inbounds nuw %struct.child_process, ptr %3, i32 0, i32 0
  %24 = load ptr, ptr %2, align 8, !tbaa !187
  %25 = getelementptr inbounds nuw %struct.http_pack_request, ptr %24, i32 0, i32 1
  %26 = load ptr, ptr %25, align 8, !tbaa !197
  %27 = icmp ne ptr %26, null
  br i1 %27, label %28, label %32

28:                                               ; preds = %1
  %29 = load ptr, ptr %2, align 8, !tbaa !187
  %30 = getelementptr inbounds nuw %struct.http_pack_request, ptr %29, i32 0, i32 1
  %31 = load ptr, ptr %30, align 8, !tbaa !197
  br label %33

32:                                               ; preds = %1
  br label %33

33:                                               ; preds = %32, %28
  %34 = phi ptr [ %31, %28 ], [ @default_index_pack_args, %32 ]
  call void @strvec_pushv(ptr noundef %23, ptr noundef %34)
  %35 = load ptr, ptr %2, align 8, !tbaa !187
  %36 = getelementptr inbounds nuw %struct.http_pack_request, ptr %35, i32 0, i32 2
  %37 = load i8, ptr %36, align 8
  %38 = and i8 %37, 1
  %39 = zext i8 %38 to i32
  %40 = icmp ne i32 %39, 0
  br i1 %40, label %41, label %43

41:                                               ; preds = %33
  %42 = getelementptr inbounds nuw %struct.child_process, ptr %3, i32 0, i32 8
  store i32 0, ptr %42, align 4, !tbaa !198
  br label %48

43:                                               ; preds = %33
  %44 = getelementptr inbounds nuw %struct.child_process, ptr %3, i32 0, i32 11
  %45 = load i16, ptr %44, align 8
  %46 = and i16 %45, -3
  %47 = or i16 %46, 2
  store i16 %47, ptr %44, align 8
  br label %48

48:                                               ; preds = %43, %41
  %49 = call i32 @run_command(ptr noundef %3)
  %50 = icmp ne i32 %49, 0
  br i1 %50, label %51, label %52

51:                                               ; preds = %48
  store i32 -1, ptr %5, align 4, !tbaa !19
  br label %53

52:                                               ; preds = %48
  br label %53

53:                                               ; preds = %52, %51
  %54 = load i32, ptr %4, align 4, !tbaa !19
  %55 = call i32 @close(i32 noundef %54)
  %56 = load ptr, ptr %2, align 8, !tbaa !187
  %57 = getelementptr inbounds nuw %struct.http_pack_request, ptr %56, i32 0, i32 4
  %58 = getelementptr inbounds nuw %struct.strbuf, ptr %57, i32 0, i32 2
  %59 = load ptr, ptr %58, align 8, !tbaa !194
  %60 = call i32 @unlink(ptr noundef %59) #11
  %61 = load i32, ptr %5, align 4, !tbaa !19
  call void @llvm.lifetime.end.p0(i64 4, ptr %5) #11
  call void @llvm.lifetime.end.p0(i64 4, ptr %4) #11
  call void @llvm.lifetime.end.p0(i64 120, ptr %3) #11
  ret i32 %61
}