; Function Attrs: nounwind uwtable
define dso_local range(i32 -1, 1) i32 @finish_http_pack_request(ptr noundef captures(none) %0) local_unnamed_addr #3 {
  %2 = alloca %struct.child_process, align 8
  call void @llvm.lifetime.start.p0(i64 120, ptr nonnull %2) #22
  call void @llvm.memcpy.p0.p0.i64(ptr noundef nonnull align 8 dereferenceable(120) %2, ptr noundef nonnull align 8 dereferenceable(120) @__const.finish_http_pack_request.ip, i64 120, i1 false)
  %3 = getelementptr inbounds nuw i8, ptr %0, i64 24
  %4 = load ptr, ptr %3, align 8, !tbaa !165
  %5 = tail call i32 @fclose(ptr noundef %4)
  store ptr null, ptr %3, align 8, !tbaa !165
  %6 = getelementptr inbounds nuw i8, ptr %0, i64 48
  %7 = load ptr, ptr %6, align 8, !tbaa !170
  %8 = tail call i32 (ptr, i32, ...) @xopen(ptr noundef %7, i32 noundef 0) #22
  %9 = getelementptr inbounds nuw i8, ptr %2, i64 104
  store i16 8, ptr %9, align 8
  %10 = getelementptr inbounds nuw i8, ptr %2, i64 80
  store i32 %8, ptr %10, align 8, !tbaa !171
  %11 = getelementptr inbounds nuw i8, ptr %0, i64 8
  %12 = load ptr, ptr %11, align 8, !tbaa !173
  %.not = icmp eq ptr %12, null
  %spec.select = select i1 %.not, ptr @default_index_pack_args, ptr %12
  call void @strvec_pushv(ptr noundef nonnull %2, ptr noundef nonnull %spec.select) #22
  %13 = getelementptr inbounds nuw i8, ptr %0, i64 16
  %14 = load i8, ptr %13, align 8
  %15 = and i8 %14, 1
  %.not10 = icmp eq i8 %15, 0
  br i1 %.not10, label %18, label %16

16:                                               ; preds = %1
  %17 = getelementptr inbounds nuw i8, ptr %2, i64 84
  store i32 0, ptr %17, align 4, !tbaa !174
  br label %21

18:                                               ; preds = %1
  %19 = load i16, ptr %9, align 8
  %20 = or i16 %19, 2
  store i16 %20, ptr %9, align 8
  br label %21

21:                                               ; preds = %18, %16
  %22 = call i32 @run_command(ptr noundef nonnull %2) #22
  %.not11 = icmp ne i32 %22, 0
  %spec.select12 = sext i1 %.not11 to i32
  %23 = call i32 @close(i32 noundef %8) #22
  %24 = load ptr, ptr %6, align 8, !tbaa !170
  %25 = call i32 @unlink(ptr noundef %24) #22
  call void @llvm.lifetime.end.p0(i64 120, ptr nonnull %2) #22
  ret i32 %spec.select12
}